target datalayout = "e-m:e-p270:32:32-p271:32:32-p272:64:64-i64:64-i128:128-f80:128-n8:16:32:64-S128"
target triple = "x86_64-pc-linux-gnu"

%"class.icu_77::GregorianCalendar" = type <{ %"class.icu_77::Calendar", double, i32, [4 x i8], double, i32, i8, i8, [2 x i8] }>
%"class.icu_77::Calendar" = type <{ %"class.icu_77::UObject", [24 x i32], [24 x i8], i8, [7 x i8], double, ptr, i8, i16, i8, i32, i32, i32, i8, i8, i16, [4 x i8], ptr, ptr }>
%"class.icu_77::UObject" = type { ptr }

; Function Attrs: mustprogress nounwind uwtable
define noundef signext i8 @_ZNK6icu_7717GregorianCalendar10isLeapYearEi(ptr noundef nonnull align 8 dereferenceable(222) %0, i32 noundef %1) #0 align 2 {
  %3 = alloca ptr, align 8
  %4 = alloca i32, align 4
  store ptr %0, ptr %3, align 8, !tbaa !3
  store i32 %1, ptr %4, align 4, !tbaa !31
  %5 = load ptr, ptr %3, align 8
  %6 = load i32, ptr %4, align 4, !tbaa !31
  %7 = getelementptr inbounds nuw %"class.icu_77::GregorianCalendar", ptr %5, i32 0, i32 5
  %8 = load i32, ptr %7, align 8, !tbaa !25
  %9 = icmp sge i32 %6, %8
  br i1 %9, label %10, label %26

10:                                               ; preds = %2
  %11 = load i32, ptr %4, align 4, !tbaa !31
  %12 = and i32 %11, 3
  %13 = icmp eq i32 %12, 0
  br i1 %13, label %14, label %24

14:                                               ; preds = %10
  %15 = load i32, ptr %4, align 4, !tbaa !31
  %16 = srem i32 %15, 100
  %17 = icmp ne i32 %16, 0
  br i1 %17, label %22, label %18

18:                                               ; preds = %14
  %19 = load i32, ptr %4, align 4, !tbaa !31
  %20 = srem i32 %19, 400
  %21 = icmp eq i32 %20, 0
  br label %22

22:                                               ; preds = %18, %14
  %23 = phi i1 [ true, %14 ], [ %21, %18 ]
  br label %24

24:                                               ; preds = %22, %10
  %25 = phi i1 [ false, %10 ], [ %23, %22 ]
  br label %30

26:                                               ; preds = %2
  %27 = load i32, ptr %4, align 4, !tbaa !31
  %28 = and i32 %27, 3
  %29 = icmp eq i32 %28, 0
  br label %30

30:                                               ; preds = %26, %24
  %31 = phi i1 [ %25, %24 ], [ %29, %26 ]
  %32 = zext i1 %31 to i8
  ret i8 %32
}

; Function Attrs: mustprogress uwtable
define noundef i32 @_ZNK6icu_7717GregorianCalendar10yearLengthEv(ptr noundef nonnull align 8 dereferenceable(222) %0) #1 align 2 {
  %2 = alloca ptr, align 8
  store ptr %0, ptr %2, align 8, !tbaa !3
  %3 = load ptr, ptr %2, align 8
  %4 = call noundef i32 @_ZNK6icu_778Calendar11internalGetE19UCalendarDateFields(ptr noundef nonnull align 8 dereferenceable(192) %3, i32 noundef 1)
  %5 = call noundef signext i8 @_ZNK6icu_7717GregorianCalendar10isLeapYearEi(ptr noundef nonnull align 8 dereferenceable(222) %3, i32 noundef %4)
  %6 = icmp ne i8 %5, 0
  %7 = select i1 %6, i32 366, i32 365
  ret i32 %7
}

; Function Attrs: inlinehint mustprogress nounwind uwtable
define internal noundef signext i8 @_ZL9U_FAILURE10UErrorCode(i32 noundef %0) #4 {
  %2 = alloca i32, align 4
  store i32 %0, ptr %2, align 4, !tbaa !35
  %3 = load i32, ptr %2, align 4, !tbaa !35
  %4 = icmp sgt i32 %3, 0
  %5 = zext i1 %4 to i8
  ret i8 %5
}

; Function Attrs: mustprogress uwtable
define noundef signext i8 @_ZNK6icu_7717GregorianCalendar11boundsCheckEi19UCalendarDateFields(ptr noundef nonnull align 8 dereferenceable(222) %0, i32 noundef %1, i32 noundef %2) #1 align 2 {
  %4 = alloca ptr, align 8
  %5 = alloca i32, align 4
  %6 = alloca i32, align 4
  store ptr %0, ptr %4, align 8, !tbaa !3
  store i32 %1, ptr %5, align 4, !tbaa !31
  store i32 %2, ptr %6, align 4, !tbaa !45
  %7 = load ptr, ptr %4, align 8
  %8 = load i32, ptr %5, align 4, !tbaa !31
  %9 = load i32, ptr %6, align 4, !tbaa !45
  %10 = load ptr, ptr %7, align 8, !tbaa !9
  %11 = getelementptr inbounds ptr, ptr %10, i64 14
  %12 = load ptr, ptr %11, align 8
  %13 = call noundef i32 %12(ptr noundef nonnull align 8 dereferenceable(192) %7, i32 noundef %9)
  %14 = icmp sge i32 %8, %13
  br i1 %14, label %15, label %23

15:                                               ; preds = %3
  %16 = load i32, ptr %5, align 4, !tbaa !31
  %17 = load i32, ptr %6, align 4, !tbaa !45
  %18 = load ptr, ptr %7, align 8, !tbaa !9
  %19 = getelementptr inbounds ptr, ptr %18, i64 16
  %20 = load ptr, ptr %19, align 8
  %21 = call noundef i32 %20(ptr noundef nonnull align 8 dereferenceable(192) %7, i32 noundef %17)
  %22 = icmp sle i32 %16, %21
  br label %23

23:                                               ; preds = %15, %3
  %24 = phi i1 [ false, %3 ], [ %22, %15 ]
  %25 = zext i1 %24 to i8
  ret i8 %25
}

; Function Attrs: inlinehint mustprogress nounwind uwtable
define linkonce_odr noundef i32 @_ZNK6icu_778Calendar11internalGetE19UCalendarDateFields(ptr noundef nonnull align 8 dereferenceable(192) %0, i32 noundef %1) #4 comdat align 2 {
  %3 = alloca ptr, align 8
  %4 = alloca i32, align 4
  store ptr %0, ptr %3, align 8, !tbaa !32
  store i32 %1, ptr %4, align 4, !tbaa !45
  %5 = load ptr, ptr %3, align 8
  %6 = getelementptr inbounds nuw %"class.icu_77::Calendar", ptr %5, i32 0, i32 1
  %7 = load i32, ptr %4, align 4, !tbaa !45
  %8 = zext i32 %7 to i64
  %9 = getelementptr inbounds nuw [24 x i32], ptr %6, i64 0, i64 %8
  %10 = load i32, ptr %9, align 4, !tbaa !31
  ret i32 %10
}

; Function Attrs: mustprogress uwtable
define noundef signext i8 @_ZNK6icu_7717GregorianCalendar14validateFieldsEv(ptr noundef nonnull align 8 dereferenceable(222) %0) #1 align 2 {
  %2 = alloca i8, align 1
  %3 = alloca ptr, align 8
  %4 = alloca i32, align 4
  %5 = alloca i32, align 4
  %6 = alloca i32, align 4
  %7 = alloca i32, align 4
  %8 = alloca i32, align 4
  store ptr %0, ptr %3, align 8, !tbaa !3
  %9 = load ptr, ptr %3, align 8
  call void @llvm.lifetime.start.p0(i64 4, ptr %4) #10
  store i32 0, ptr %4, align 4, !tbaa !31
  br label %10

10:                                               ; preds = %32, %1
  %11 = load i32, ptr %4, align 4, !tbaa !31
  %12 = icmp slt i32 %11, 24
  br i1 %12, label %14, label %13

13:                                               ; preds = %10
  store i32 2, ptr %5, align 4
  br label %35

14:                                               ; preds = %10
  %15 = load i32, ptr %4, align 4, !tbaa !31
  %16 = icmp ne i32 %15, 5
  br i1 %16, label %17, label %31

17:                                               ; preds = %14
  %18 = load i32, ptr %4, align 4, !tbaa !31
  %19 = icmp ne i32 %18, 6
  br i1 %19, label %20, label %31

20:                                               ; preds = %17
  %21 = load i32, ptr %4, align 4, !tbaa !31
  %22 = call noundef signext i8 @_ZNK6icu_778Calendar5isSetE19UCalendarDateFields(ptr noundef nonnull align 8 dereferenceable(192) %9, i32 noundef %21)
  %23 = icmp ne i8 %22, 0
  br i1 %23, label %24, label %31

24:                                               ; preds = %20
  %25 = load i32, ptr %4, align 4, !tbaa !31
  %26 = call noundef i32 @_ZNK6icu_778Calendar11internalGetE19UCalendarDateFields(ptr noundef nonnull align 8 dereferenceable(192) %9, i32 noundef %25)
  %27 = load i32, ptr %4, align 4, !tbaa !31
  %28 = call noundef signext i8 @_ZNK6icu_7717GregorianCalendar11boundsCheckEi19UCalendarDateFields(ptr noundef nonnull align 8 dereferenceable(222) %9, i32 noundef %26, i32 noundef %27)
  %29 = icmp ne i8 %28, 0
  br i1 %29, label %31, label %30

30:                                               ; preds = %24
  store i8 0, ptr %2, align 1
  store i32 1, ptr %5, align 4
  br label %35

31:                                               ; preds = %24, %20, %17, %14
  br label %32

32:                                               ; preds = %31
  %33 = load i32, ptr %4, align 4, !tbaa !31
  %34 = add nsw i32 %33, 1
  store i32 %34, ptr %4, align 4, !tbaa !31
  br label %10, !llvm.loop !47

35:                                               ; preds = %30, %13
  call void @llvm.lifetime.end.p0(i64 4, ptr %4) #10
  %36 = load i32, ptr %5, align 4
  switch i32 %36, label %94 [
    i32 2, label %37
    i32 1, label %92
  ]

37:                                               ; preds = %35
  %38 = call noundef signext i8 @_ZNK6icu_778Calendar5isSetE19UCalendarDateFields(ptr noundef nonnull align 8 dereferenceable(192) %9, i32 noundef 5)
  %39 = icmp ne i8 %38, 0
  br i1 %39, label %40, label %68

40:                                               ; preds = %37
  call void @llvm.lifetime.start.p0(i64 4, ptr %6) #10
  %41 = call noundef i32 @_ZNK6icu_778Calendar11internalGetE19UCalendarDateFields(ptr noundef nonnull align 8 dereferenceable(192) %9, i32 noundef 5)
  store i32 %41, ptr %6, align 4, !tbaa !31
  call void @llvm.lifetime.start.p0(i64 4, ptr %7) #10
  store i32 0, ptr %7, align 4, !tbaa !35
  %42 = load i32, ptr %6, align 4, !tbaa !31
  %43 = load ptr, ptr %9, align 8, !tbaa !9
  %44 = getelementptr inbounds ptr, ptr %43, i64 14
  %45 = load ptr, ptr %44, align 8
  %46 = call noundef i32 %45(ptr noundef nonnull align 8 dereferenceable(192) %9, i32 noundef 5)
  %47 = icmp slt i32 %42, %46
  br i1 %47, label %63, label %48

48:                                               ; preds = %40
  %49 = load i32, ptr %6, align 4, !tbaa !31
  %50 = load ptr, ptr %9, align 8, !tbaa !9
  %51 = getelementptr inbounds ptr, ptr %50, i64 34
  %52 = load ptr, ptr %51, align 8
  %53 = call noundef i32 %52(ptr noundef nonnull align 8 dereferenceable(192) %9, ptr noundef nonnull align 4 dereferenceable(4) %7)
  %54 = load ptr, ptr %9, align 8, !tbaa !9
  %55 = getelementptr inbounds ptr, ptr %54, i64 57
  %56 = load ptr, ptr %55, align 8
  %57 = call noundef i32 %56(ptr noundef nonnull align 8 dereferenceable(222) %9, i32 noundef %53, ptr noundef nonnull align 4 dereferenceable(4) %7)
  %58 = icmp sgt i32 %49, %57
  br i1 %58, label %63, label %59

59:                                               ; preds = %48
  %60 = load i32, ptr %7, align 4, !tbaa !35
  %61 = call noundef signext i8 @_ZL9U_FAILURE10UErrorCode(i32 noundef %60)
  %62 = icmp ne i8 %61, 0
  br i1 %62, label %63, label %64

63:                                               ; preds = %59, %48, %40
  store i8 0, ptr %2, align 1
  store i32 1, ptr %5, align 4
  br label %65

64:                                               ; preds = %59
  store i32 0, ptr %5, align 4
  br label %65

65:                                               ; preds = %64, %63
  call void @llvm.lifetime.end.p0(i64 4, ptr %7) #10
  call void @llvm.lifetime.end.p0(i64 4, ptr %6) #10
  %66 = load i32, ptr %5, align 4
  switch i32 %66, label %94 [
    i32 0, label %67
    i32 1, label %92
  ]

67:                                               ; preds = %65
  br label %68

68:                                               ; preds = %67, %37
  %69 = call noundef signext i8 @_ZNK6icu_778Calendar5isSetE19UCalendarDateFields(ptr noundef nonnull align 8 dereferenceable(192) %9, i32 noundef 6)
  %70 = icmp ne i8 %69, 0
  br i1 %70, label %71, label %84

71:                                               ; preds = %68
  call void @llvm.lifetime.start.p0(i64 4, ptr %8) #10
  %72 = call noundef i32 @_ZNK6icu_778Calendar11internalGetE19UCalendarDateFields(ptr noundef nonnull align 8 dereferenceable(192) %9, i32 noundef 6)
  store i32 %72, ptr %8, align 4, !tbaa !31
  %73 = load i32, ptr %8, align 4, !tbaa !31
  %74 = icmp slt i32 %73, 1
  br i1 %74, label %79, label %75

75:                                               ; preds = %71
  %76 = load i32, ptr %8, align 4, !tbaa !31
  %77 = call noundef i32 @_ZNK6icu_7717GregorianCalendar10yearLengthEv(ptr noundef nonnull align 8 dereferenceable(222) %9)
  %78 = icmp sgt i32 %76, %77
  br i1 %78, label %79, label %80

79:                                               ; preds = %75, %71
  store i8 0, ptr %2, align 1
  store i32 1, ptr %5, align 4
  br label %81

80:                                               ; preds = %75
  store i32 0, ptr %5, align 4
  br label %81

81:                                               ; preds = %80, %79
  call void @llvm.lifetime.end.p0(i64 4, ptr %8) #10
  %82 = load i32, ptr %5, align 4
  switch i32 %82, label %94 [
    i32 0, label %83
    i32 1, label %92
  ]

83:                                               ; preds = %81
  br label %84

84:                                               ; preds = %83, %68
  %85 = call noundef signext i8 @_ZNK6icu_778Calendar5isSetE19UCalendarDateFields(ptr noundef nonnull align 8 dereferenceable(192) %9, i32 noundef 8)
  %86 = icmp ne i8 %85, 0
  br i1 %86, label %87, label %91

87:                                               ; preds = %84
  %88 = call noundef i32 @_ZNK6icu_778Calendar11internalGetE19UCalendarDateFields(ptr noundef nonnull align 8 dereferenceable(192) %9, i32 noundef 8)
  %89 = icmp eq i32 0, %88
  br i1 %89, label %90, label %91

90:                                               ; preds = %87
  store i8 0, ptr %2, align 1
  br label %92

91:                                               ; preds = %87, %84
  store i8 1, ptr %2, align 1
  br label %92

92:                                               ; preds = %91, %90, %81, %65, %35
  %93 = load i8, ptr %2, align 1
  ret i8 %93

94:                                               ; preds = %81, %65, %35
  unreachable
}