; Function Attrs: mustprogress uwtable
define noundef signext range(i8 0, 2) i8 @_ZNK6icu_7717GregorianCalendar14validateFieldsEv(ptr noundef nonnull align 8 dereferenceable(222) %0) local_unnamed_addr #1 align 2 {
  %2 = alloca i32, align 4
  %3 = getelementptr inbounds nuw i8, ptr %0, i64 8
  br label %4

4:                                                ; preds = %1, %21
  %indvars.iv = phi i64 [ 0, %1 ], [ %indvars.iv.next, %21 ]
  %5 = trunc i64 %indvars.iv to i32
  %6 = add i32 %5, -7
  %or.cond = icmp ult i32 %6, -2
  br i1 %or.cond, label %7, label %21

7:                                                ; preds = %4
  %8 = trunc nuw nsw i64 %indvars.iv to i32
  %9 = tail call noundef signext i8 @_ZNK6icu_778Calendar5isSetE19UCalendarDateFields(ptr noundef nonnull align 8 dereferenceable(192) %0, i32 noundef %8)
  %.not = icmp eq i8 %9, 0
  br i1 %.not, label %21, label %10

10:                                               ; preds = %7
  %11 = getelementptr inbounds nuw [24 x i32], ptr %3, i64 0, i64 %indvars.iv
  %12 = load i32, ptr %11, align 4, !tbaa !32
  %13 = load ptr, ptr %0, align 8, !tbaa !3
  %14 = getelementptr inbounds nuw i8, ptr %13, i64 112
  %15 = load ptr, ptr %14, align 8
  %16 = tail call noundef i32 %15(ptr noundef nonnull align 8 dereferenceable(222) %0, i32 noundef %8)
  %.not.i = icmp slt i32 %12, %16
  br i1 %.not.i, label %.thread, label %_ZNK6icu_7717GregorianCalendar11boundsCheckEi19UCalendarDateFields.exit

_ZNK6icu_7717GregorianCalendar11boundsCheckEi19UCalendarDateFields.exit: ; preds = %10
  %17 = load ptr, ptr %0, align 8, !tbaa !3
  %18 = getelementptr inbounds nuw i8, ptr %17, i64 128
  %19 = load ptr, ptr %18, align 8
  %20 = tail call noundef i32 %19(ptr noundef nonnull align 8 dereferenceable(222) %0, i32 noundef %8)
  %.not50 = icmp sgt i32 %12, %20
  br i1 %.not50, label %.thread, label %21

21:                                               ; preds = %4, %7, %_ZNK6icu_7717GregorianCalendar11boundsCheckEi19UCalendarDateFields.exit
  %indvars.iv.next = add nuw nsw i64 %indvars.iv, 1
  %exitcond.not = icmp eq i64 %indvars.iv.next, 24
  br i1 %exitcond.not, label %22, label %4, !llvm.loop !34

22:                                               ; preds = %21
  %23 = tail call noundef signext i8 @_ZNK6icu_778Calendar5isSetE19UCalendarDateFields(ptr noundef nonnull align 8 dereferenceable(192) %0, i32 noundef 5)
  %.not22 = icmp eq i8 %23, 0
  br i1 %.not22, label %45, label %24

24:                                               ; preds = %22
  %25 = getelementptr inbounds nuw i8, ptr %0, i64 28
  %26 = load i32, ptr %25, align 4, !tbaa !32
  call void @llvm.lifetime.start.p0(i64 4, ptr nonnull %2) #9
  store i32 0, ptr %2, align 4, !tbaa !25
  %27 = load ptr, ptr %0, align 8, !tbaa !3
  %28 = getelementptr inbounds nuw i8, ptr %27, i64 112
  %29 = load ptr, ptr %28, align 8
  %30 = tail call noundef i32 %29(ptr noundef nonnull align 8 dereferenceable(192) %0, i32 noundef 5)
  %31 = icmp slt i32 %26, %30
  br i1 %31, label %.thread36, label %32

32:                                               ; preds = %24
  %33 = load ptr, ptr %0, align 8, !tbaa !3
  %34 = getelementptr inbounds nuw i8, ptr %33, i64 272
  %35 = load ptr, ptr %34, align 8
  %36 = call noundef i32 %35(ptr noundef nonnull align 8 dereferenceable(192) %0, ptr noundef nonnull align 4 dereferenceable(4) %2)
  %37 = load ptr, ptr %0, align 8, !tbaa !3
  %38 = getelementptr inbounds nuw i8, ptr %37, i64 456
  %39 = load ptr, ptr %38, align 8
  %40 = call noundef i32 %39(ptr noundef nonnull align 8 dereferenceable(222) %0, i32 noundef %36, ptr noundef nonnull align 4 dereferenceable(4) %2)
  %41 = icmp sle i32 %26, %40
  %42 = load i32, ptr %2, align 4
  %43 = icmp slt i32 %42, 1
  %or.cond52 = select i1 %41, i1 %43, i1 false
  br i1 %or.cond52, label %44, label %.thread36

.thread36:                                        ; preds = %32, %24
  call void @llvm.lifetime.end.p0(i64 4, ptr nonnull %2) #9
  br label %.thread

44:                                               ; preds = %32
  call void @llvm.lifetime.end.p0(i64 4, ptr nonnull %2) #9
  br label %45

45:                                               ; preds = %44, %22
  %46 = call noundef signext i8 @_ZNK6icu_778Calendar5isSetE19UCalendarDateFields(ptr noundef nonnull align 8 dereferenceable(192) %0, i32 noundef 6)
  %.not24 = icmp eq i8 %46, 0
  br i1 %.not24, label %64, label %47

47:                                               ; preds = %45
  %48 = getelementptr inbounds nuw i8, ptr %0, i64 32
  %49 = load i32, ptr %48, align 8, !tbaa !32
  %50 = icmp slt i32 %49, 1
  br i1 %50, label %.thread, label %51

51:                                               ; preds = %47
  %52 = getelementptr inbounds nuw i8, ptr %0, i64 12
  %53 = load i32, ptr %52, align 4, !tbaa !32
  %.fr3.i = freeze i32 %53
  %54 = getelementptr inbounds nuw i8, ptr %0, i64 216
  %55 = load i32, ptr %54, align 8, !tbaa !22
  %.fr.i = freeze i32 %55
  %.not.i.i = icmp slt i32 %.fr3.i, %.fr.i
  %56 = and i32 %.fr3.i, 3
  %57 = icmp eq i32 %56, 0
  %.not6.i.i = xor i1 %57, true
  %brmerge.i.i = or i1 %.not.i.i, %.not6.i.i
  br i1 %brmerge.i.i, label %_ZNK6icu_7717GregorianCalendar10isLeapYearEi.exit.i, label %58

58:                                               ; preds = %51
  %59 = srem i32 %.fr3.i, 100
  %.not5.i.i = icmp ne i32 %59, 0
  %60 = srem i32 %.fr3.i, 400
  %61 = icmp eq i32 %60, 0
  %or.cond43 = or i1 %.not5.i.i, %61
  br i1 %or.cond43, label %_ZNK6icu_7717GregorianCalendar10isLeapYearEi.exit.thread.i, label %62

_ZNK6icu_7717GregorianCalendar10isLeapYearEi.exit.i: ; preds = %51
  %.mux.i.i = and i1 %.not.i.i, %57
  br i1 %.mux.i.i, label %_ZNK6icu_7717GregorianCalendar10isLeapYearEi.exit.thread.i, label %62

_ZNK6icu_7717GregorianCalendar10isLeapYearEi.exit.thread.i: ; preds = %_ZNK6icu_7717GregorianCalendar10isLeapYearEi.exit.i, %58
  br label %62

62:                                               ; preds = %58, %_ZNK6icu_7717GregorianCalendar10isLeapYearEi.exit.thread.i, %_ZNK6icu_7717GregorianCalendar10isLeapYearEi.exit.i
  %63 = phi i32 [ 366, %_ZNK6icu_7717GregorianCalendar10isLeapYearEi.exit.thread.i ], [ 365, %_ZNK6icu_7717GregorianCalendar10isLeapYearEi.exit.i ], [ 365, %58 ]
  %.not48 = icmp samesign ugt i32 %49, %63
  br i1 %.not48, label %.thread, label %64

64:                                               ; preds = %62, %45
  %65 = call noundef signext i8 @_ZNK6icu_778Calendar5isSetE19UCalendarDateFields(ptr noundef nonnull align 8 dereferenceable(192) %0, i32 noundef 8)
  %.not25 = icmp eq i8 %65, 0
  %66 = getelementptr inbounds nuw i8, ptr %0, i64 40
  %67 = load i32, ptr %66, align 8
  %68 = icmp ne i32 %67, 0
  %or.cond47.not = select i1 %.not25, i1 true, i1 %68
  %spec.select = zext i1 %or.cond47.not to i8
  br label %.thread

.thread:                                          ; preds = %10, %_ZNK6icu_7717GregorianCalendar11boundsCheckEi19UCalendarDateFields.exit, %64, %47, %.thread36, %62
  %.1 = phi i8 [ 0, %62 ], [ 0, %.thread36 ], [ 0, %47 ], [ %spec.select, %64 ], [ 0, %_ZNK6icu_7717GregorianCalendar11boundsCheckEi19UCalendarDateFields.exit ], [ 0, %10 ]
  ret i8 %.1
}